Certificate:
    Data:
        Version: 3 (0x2)
        Serial Number: 1 (0x1)
        Signature Algorithm: sha256WithRSAEncryption
        Issuer: C=JP, ST=Tokyo, O=Example, CN=Example Root CA
        Validity
            Not Before: Sep  5 11:35:28 2020 GMT
            Not After : Jun 21 11:35:28 2294 GMT
        Subject: C=JP, ST=Tokyo, O=Example, CN=Example Root CA
        Subject Public Key Info:
            Public Key Algorithm: rsaEncryption
                RSA Public-Key: (2048 bit)
                Modulus:
                    00:94:e7:e2:53:48:a3:2f:d0:ca:ba:39:55:e4:f9:
                    17:d6:7b:35:4d:eb:e3:8b:ea:f7:1d:89:be:fe:6b:
                    bf:c2:c1:60:ae:9a:d6:0f:64:67:33:df:3d:31:fa:
                    30:66:5e:6a:3b:83:16:6e:15:90:36:2c:92:fb:c2:
                    d1:83:97:e6:85:2c:e8:b5:a5:7b:b5:4a:ef:2f:b3:
                    81:ab:09:34:b5:2a:43:16:0e:77:75:fa:07:15:0c:
                    bb:e0:a3:28:a6:e9:55:93:e0:5e:3f:71:20:3e:05:
                    b4:53:ba:ba:c6:66:91:8b:c8:a1:69:47:43:7b:50:
                    c6:6a:c0:ba:85:64:2f:3e:81:ca:21:d4:ec:f5:8d:
                    d9:30:fe:88:ed:ad:5f:51:a0:ae:34:48:ec:7f:6b:
                    c6:0f:3b:45:eb:db:53:d7:ed:7e:36:da:81:54:1e:
                    b5:11:3a:24:d5:dc:7c:bc:7f:e8:a9:cf:f4:f4:e5:
                    46:7b:7c:e1:e0:08:23:35:75:6f:1a:12:12:06:2f:
                    a8:7c:73:71:9e:67:7d:6c:06:fa:7f:42:f0:9b:6b:
                    a6:e1:0e:0d:fa:c8:d4:ec:31:43:20:f6:0c:aa:8d:
                    88:1a:fc:97:c4:2c:2d:1b:0e:cd:c7:88:f9:18:53:
                    e0:a5:a3:ce:6b:8d:c0:81:55:8b:10:15:25:cc:51:
                    fe:ff
                Exponent: 65537 (0x10001)
        X509v3 extensions:
            X509v3 Subject Key Identifier: 
                BE:89:64:96:50:1F:E0:5F:A8:39:B7:47:03:03:C6:86:53:FB:C4:39
            X509v3 Authority Key Identifier: 
                keyid:BE:89:64:96:50:1F:E0:5F:A8:39:B7:47:03:03:C6:86:53:FB:C4:39

            X509v3 Basic Constraints: critical
                CA:TRUE
            X509v3 Key Usage: critical
                Digital Signature, Certificate Sign, CRL Sign
    Signature Algorithm: sha256WithRSAEncryption
         62:cc:41:77:09:1e:ab:32:d3:03:01:f1:03:65:6f:e6:03:0a:
         a5:3e:4e:76:ea:db:2b:f2:f0:fc:c9:3e:93:d9:05:ba:41:03:
         f5:f0:af:03:af:bc:52:7c:53:c4:1d:ef:b8:c1:44:3b:a7:06:
         d3:b9:a4:d1:a6:27:1a:c4:c4:b1:e8:93:57:cb:c8:5c:a9:a9:
         8e:ef:4e:04:04:35:48:ca:96:7f:10:6a:21:9d:a9:79:63:31:
         4c:1a:6d:66:b6:81:58:ef:5a:9f:5f:ab:b6:99:0b:5c:06:a4:
         d2:93:79:c8:51:1d:31:cc:c3:5a:c2:44:06:fe:ae:45:95:5c:
         3a:19:4c:7a:6a:c1:f0:b5:eb:43:d6:18:7a:a6:43:88:59:26:
         db:1c:4c:6b:d8:7a:2b:7e:42:0a:bf:e8:e7:67:ad:6a:fb:50:
         2c:2e:6d:99:75:42:83:cc:f1:43:58:c8:7a:2d:ac:23:a0:06:
         32:00:10:02:c2:6a:7b:b8:5e:18:9f:5c:a6:31:3e:5d:f1:e7:
         d6:07:dc:84:d9:d5:28:32:38:19:1d:f8:87:b9:ed:c8:bd:74:
         78:c1:8a:67:fc:57:6c:ba:73:d3:33:a8:2d:b7:e7:fd:9f:73:
         c3:b5:9d:c1:82:e9:dd:30:c3:c0:09:ad:db:69:02:4c:71:65:
         f1:df:c3:f3
-----BEGIN CERTIFICATE-----
MIIDcjCCAlqgAwIBAgIBATANBgkqhkiG9w0BAQsFADBJMQswCQYDVQQGEwJKUDEO
MAwGA1UECAwFVG9reW8xEDAOBgNVBAoMB0V4YW1wbGUxGDAWBgNVBAMMD0V4YW1w
bGUgUm9vdCBDQTAgFw0yMDA5MDUxMTM1MjhaGA8yMjk0MDYyMTExMzUyOFowSTEL
MAkGA1UEBhMCSlAxDjAMBgNVBAgMBVRva3lvMRAwDgYDVQQKDAdFeGFtcGxlMRgw
FgYDVQQDDA9FeGFtcGxlIFJvb3QgQ0EwggEiMA0GCSqGSIb3DQEBAQUAA4IBDwAw
ggEKAoIBAQCU5+JTSKMv0Mq6OVXk+RfWezVN6+OL6vcdib7+a7/CwWCumtYPZGcz
3z0x+jBmXmo7gxZuFZA2LJL7wtGDl+aFLOi1pXu1Su8vs4GrCTS1KkMWDnd1+gcV
DLvgoyim6VWT4F4/cSA+BbRTurrGZpGLyKFpR0N7UMZqwLqFZC8+gcoh1Oz1jdkw
/ojtrV9RoK40SOx/a8YPO0Xr21PX7X422oFUHrUROiTV3Hy8f+ipz/T05UZ7fOHg
CCM1dW8aEhIGL6h8c3GeZ31sBvp/QvCba6bhDg36yNTsMUMg9gyqjYga/JfELC0b
Ds3HiPkYU+Clo85rjcCBVYsQFSXMUf7/AgMBAAGjYzBhMB0GA1UdDgQWBBS+iWSW
UB/gX6g5t0cDA8aGU/vEOTAfBgNVHSMEGDAWgBS+iWSWUB/gX6g5t0cDA8aGU/vE
OTAPBgNVHRMBAf8EBTADAQH/MA4GA1UdDwEB/wQEAwIBhjANBgkqhkiG9w0BAQsF
AAOCAQEAYsxBdwkeqzLTAwHxA2Vv5gMKpT5OdurbK/Lw/Mk+k9kFukED9fCvA6+8
UnxTxB3vuMFEO6cG07mk0aYnGsTEseiTV8vIXKmpju9OBAQ1SMqWfxBqIZ2peWMx
TBptZraBWO9an1+rtpkLXAak0pN5yFEdMczDWsJEBv6uRZVcOhlMemrB8LXrQ9YY
eqZDiFkm2xxMa9h6K35CCr/o52etavtQLC5tmXVCg8zxQ1jIei2sI6AGMgAQAsJq
e7heGJ9cpjE+XfHn1gfchNnVKDI4GR34h7ntyL10eMGKZ/xXbLpz0zOoLbfn/Z9z
w7WdwYLp3TDDwAmt22kCTHFl8d/D8w==
-----END CERTIFICATE-----
